target datalayout = "e-m:e-p270:32:32-p271:32:32-p272:64:64-i64:64-i128:128-f80:128-n8:16:32:64-S128"
target triple = "x86_64-pc-linux-gnu"

%class.b3Generic6DofConstraint = type { %class.b3TypedConstraint, %class.b3Transform, %class.b3Transform, %class.b3TranslationalLimitMotor, [3 x %class.b3RotationalLimitMotor], %class.b3Transform, %class.b3Transform, %class.b3Vector3, [3 x %class.b3Vector3], %class.b3Vector3, float, float, float, i8, %class.b3Vector3, i8, i8, i32, [8 x i8] }
%class.b3TypedConstraint = type { ptr, %struct.b3TypedObject, i32, %union.anon, float, i8, i8, i32, i32, i32, float, float, ptr }
%struct.b3TypedObject = type { i32 }
%union.anon = type { ptr }
%class.b3TranslationalLimitMotor = type { %class.b3Vector3, %class.b3Vector3, %class.b3Vector3, %class.b3Vector3, %class.b3Vector3, %class.b3Vector3, %class.b3Vector3, %class.b3Vector3, %class.b3Vector3, %class.b3Vector3, float, float, float, [3 x i8], [3 x i32], [4 x i8] }
%class.b3RotationalLimitMotor = type { float, float, float, float, float, float, float, float, float, float, float, i8, float, float, i32, float }
%class.b3Transform = type { %class.b3Matrix3x3, %class.b3Vector3 }
%class.b3Matrix3x3 = type { [3 x %class.b3Vector3] }
%class.b3Vector3 = type { %union.anon.0 }
%union.anon.0 = type { [4 x float] }

; Function Attrs: inlinehint mustprogress nounwind uwtable
define linkonce_odr dso_local noundef ptr @_ZN9b3Vector3cvPfEv(ptr noundef nonnull align 16 dereferenceable(16) %0) #5 comdat align 2 {
  %2 = alloca ptr, align 8
  store ptr %0, ptr %2, align 8, !tbaa !65
  %3 = load ptr, ptr %2, align 8
  %4 = getelementptr inbounds nuw %class.b3Vector3, ptr %3, i32 0, i32 0
  %5 = getelementptr inbounds [4 x float], ptr %4, i64 0, i64 0
  ret ptr %5
}

; Function Attrs: mustprogress uwtable
define dso_local void @_ZN23b3Generic6DofConstraint8setParamEifi(ptr noundef nonnull align 16 dereferenceable(824) %0, i32 noundef %1, float noundef %2, i32 noundef %3) unnamed_addr #0 align 2 {
  %5 = alloca ptr, align 8
  %6 = alloca i32, align 4
  %7 = alloca float, align 4
  %8 = alloca i32, align 4
  store ptr %0, ptr %5, align 8, !tbaa !4
  store i32 %1, ptr %6, align 4, !tbaa !9
  store float %2, ptr %7, align 4, !tbaa !37
  store i32 %3, ptr %8, align 4, !tbaa !9
  %9 = load ptr, ptr %5, align 8
  %10 = load i32, ptr %8, align 4, !tbaa !9
  %11 = icmp sge i32 %10, 0
  br i1 %11, label %12, label %61

12:                                               ; preds = %4
  %13 = load i32, ptr %8, align 4, !tbaa !9
  %14 = icmp slt i32 %13, 3
  br i1 %14, label %15, label %61

15:                                               ; preds = %12
  %16 = load i32, ptr %6, align 4, !tbaa !9
  switch i32 %16, label %59 [
    i32 2, label %17
    i32 4, label %31
    i32 3, label %45
  ]

17:                                               ; preds = %15
  %18 = load float, ptr %7, align 4, !tbaa !37
  %19 = getelementptr inbounds nuw %class.b3Generic6DofConstraint, ptr %9, i32 0, i32 3
  %20 = getelementptr inbounds nuw %class.b3TranslationalLimitMotor, ptr %19, i32 0, i32 4
  %21 = call noundef ptr @_ZN9b3Vector3cvPfEv(ptr noundef nonnull align 16 dereferenceable(16) %20)
  %22 = load i32, ptr %8, align 4, !tbaa !9
  %23 = sext i32 %22 to i64
  %24 = getelementptr inbounds float, ptr %21, i64 %23
  store float %18, ptr %24, align 4, !tbaa !37
  %25 = load i32, ptr %8, align 4, !tbaa !9
  %26 = mul nsw i32 %25, 3
  %27 = shl i32 4, %26
  %28 = getelementptr inbounds nuw %class.b3Generic6DofConstraint, ptr %9, i32 0, i32 17
  %29 = load i32, ptr %28, align 4, !tbaa !32
  %30 = or i32 %29, %27
  store i32 %30, ptr %28, align 4, !tbaa !32
  br label %60

31:                                               ; preds = %15
  %32 = load float, ptr %7, align 4, !tbaa !37
  %33 = getelementptr inbounds nuw %class.b3Generic6DofConstraint, ptr %9, i32 0, i32 3
  %34 = getelementptr inbounds nuw %class.b3TranslationalLimitMotor, ptr %33, i32 0, i32 5
  %35 = call noundef ptr @_ZN9b3Vector3cvPfEv(ptr noundef nonnull align 16 dereferenceable(16) %34)
  %36 = load i32, ptr %8, align 4, !tbaa !9
  %37 = sext i32 %36 to i64
  %38 = getelementptr inbounds float, ptr %35, i64 %37
  store float %32, ptr %38, align 4, !tbaa !37
  %39 = load i32, ptr %8, align 4, !tbaa !9
  %40 = mul nsw i32 %39, 3
  %41 = shl i32 2, %40
  %42 = getelementptr inbounds nuw %class.b3Generic6DofConstraint, ptr %9, i32 0, i32 17
  %43 = load i32, ptr %42, align 4, !tbaa !32
  %44 = or i32 %43, %41
  store i32 %44, ptr %42, align 4, !tbaa !32
  br label %60

45:                                               ; preds = %15
  %46 = load float, ptr %7, align 4, !tbaa !37
  %47 = getelementptr inbounds nuw %class.b3Generic6DofConstraint, ptr %9, i32 0, i32 3
  %48 = getelementptr inbounds nuw %class.b3TranslationalLimitMotor, ptr %47, i32 0, i32 3
  %49 = call noundef ptr @_ZN9b3Vector3cvPfEv(ptr noundef nonnull align 16 dereferenceable(16) %48)
  %50 = load i32, ptr %8, align 4, !tbaa !9
  %51 = sext i32 %50 to i64
  %52 = getelementptr inbounds float, ptr %49, i64 %51
  store float %46, ptr %52, align 4, !tbaa !37
  %53 = load i32, ptr %8, align 4, !tbaa !9
  %54 = mul nsw i32 %53, 3
  %55 = shl i32 1, %54
  %56 = getelementptr inbounds nuw %class.b3Generic6DofConstraint, ptr %9, i32 0, i32 17
  %57 = load i32, ptr %56, align 4, !tbaa !32
  %58 = or i32 %57, %55
  store i32 %58, ptr %56, align 4, !tbaa !32
  br label %60

59:                                               ; preds = %15
  br label %60

60:                                               ; preds = %59, %45, %31, %17
  br label %115

61:                                               ; preds = %12, %4
  %62 = load i32, ptr %8, align 4, !tbaa !9
  %63 = icmp sge i32 %62, 3
  br i1 %63, label %64, label %113

64:                                               ; preds = %61
  %65 = load i32, ptr %8, align 4, !tbaa !9
  %66 = icmp slt i32 %65, 6
  br i1 %66, label %67, label %113

67:                                               ; preds = %64
  %68 = load i32, ptr %6, align 4, !tbaa !9
  switch i32 %68, label %111 [
    i32 2, label %69
    i32 4, label %83
    i32 3, label %97
  ]

69:                                               ; preds = %67
  %70 = load float, ptr %7, align 4, !tbaa !37
  %71 = getelementptr inbounds nuw %class.b3Generic6DofConstraint, ptr %9, i32 0, i32 4
  %72 = load i32, ptr %8, align 4, !tbaa !9
  %73 = sub nsw i32 %72, 3
  %74 = sext i32 %73 to i64
  %75 = getelementptr inbounds [3 x %class.b3RotationalLimitMotor], ptr %71, i64 0, i64 %74
  %76 = getelementptr inbounds nuw %class.b3RotationalLimitMotor, ptr %75, i32 0, i32 8
  store float %70, ptr %76, align 16, !tbaa !53
  %77 = load i32, ptr %8, align 4, !tbaa !9
  %78 = mul nsw i32 %77, 3
  %79 = shl i32 4, %78
  %80 = getelementptr inbounds nuw %class.b3Generic6DofConstraint, ptr %9, i32 0, i32 17
  %81 = load i32, ptr %80, align 4, !tbaa !32
  %82 = or i32 %81, %79
  store i32 %82, ptr %80, align 4, !tbaa !32
  br label %112

83:                                               ; preds = %67
  %84 = load float, ptr %7, align 4, !tbaa !37
  %85 = getelementptr inbounds nuw %class.b3Generic6DofConstraint, ptr %9, i32 0, i32 4
  %86 = load i32, ptr %8, align 4, !tbaa !9
  %87 = sub nsw i32 %86, 3
  %88 = sext i32 %87 to i64
  %89 = getelementptr inbounds [3 x %class.b3RotationalLimitMotor], ptr %85, i64 0, i64 %88
  %90 = getelementptr inbounds nuw %class.b3RotationalLimitMotor, ptr %89, i32 0, i32 9
  store float %84, ptr %90, align 4, !tbaa !54
  %91 = load i32, ptr %8, align 4, !tbaa !9
  %92 = mul nsw i32 %91, 3
  %93 = shl i32 2, %92
  %94 = getelementptr inbounds nuw %class.b3Generic6DofConstraint, ptr %9, i32 0, i32 17
  %95 = load i32, ptr %94, align 4, !tbaa !32
  %96 = or i32 %95, %93
  store i32 %96, ptr %94, align 4, !tbaa !32
  br label %112

97:                                               ; preds = %67
  %98 = load float, ptr %7, align 4, !tbaa !37
  %99 = getelementptr inbounds nuw %class.b3Generic6DofConstraint, ptr %9, i32 0, i32 4
  %100 = load i32, ptr %8, align 4, !tbaa !9
  %101 = sub nsw i32 %100, 3
  %102 = sext i32 %101 to i64
  %103 = getelementptr inbounds [3 x %class.b3RotationalLimitMotor], ptr %99, i64 0, i64 %102
  %104 = getelementptr inbounds nuw %class.b3RotationalLimitMotor, ptr %103, i32 0, i32 7
  store float %98, ptr %104, align 4, !tbaa !52
  %105 = load i32, ptr %8, align 4, !tbaa !9
  %106 = mul nsw i32 %105, 3
  %107 = shl i32 1, %106
  %108 = getelementptr inbounds nuw %class.b3Generic6DofConstraint, ptr %9, i32 0, i32 17
  %109 = load i32, ptr %108, align 4, !tbaa !32
  %110 = or i32 %109, %107
  store i32 %110, ptr %108, align 4, !tbaa !32
  br label %112

111:                                              ; preds = %67
  br label %112

112:                                              ; preds = %111, %97, %83, %69
  br label %114

113:                                              ; preds = %64, %61
  br label %114

114:                                              ; preds = %113, %112
  br label %115

115:                                              ; preds = %114, %60
  ret void
}