; Function Attrs: mustprogress nofree norecurse nosync nounwind willreturn memory(argmem: readwrite) uwtable
define dso_local void @_ZN23b3Generic6DofConstraint8setParamEifi(ptr noundef nonnull align 16 captures(none) dereferenceable(824) %0, i32 noundef %1, float noundef %2, i32 noundef %3) unnamed_addr #6 align 2 {
  %or.cond = icmp ult i32 %3, 3
  br i1 %or.cond, label %5, label %18

5:                                                ; preds = %4
  switch i32 %1, label %38 [
    i32 2, label %6
    i32 4, label %10
    i32 3, label %14
  ]

6:                                                ; preds = %5
  %7 = getelementptr inbounds nuw i8, ptr %0, i64 256
  %8 = zext nneg i32 %3 to i64
  %9 = getelementptr inbounds nuw float, ptr %7, i64 %8
  store float %2, ptr %9, align 4, !tbaa !16
  br label %.sink.split

10:                                               ; preds = %5
  %11 = getelementptr inbounds nuw i8, ptr %0, i64 272
  %12 = zext nneg i32 %3 to i64
  %13 = getelementptr inbounds nuw float, ptr %11, i64 %12
  store float %2, ptr %13, align 4, !tbaa !16
  br label %.sink.split

14:                                               ; preds = %5
  %15 = getelementptr inbounds nuw i8, ptr %0, i64 240
  %16 = zext nneg i32 %3 to i64
  %17 = getelementptr inbounds nuw float, ptr %15, i64 %16
  store float %2, ptr %17, align 4, !tbaa !16
  br label %.sink.split

18:                                               ; preds = %4
  %19 = add i32 %3, -3
  %or.cond3 = icmp ult i32 %19, 3
  br i1 %or.cond3, label %20, label %38

20:                                               ; preds = %18
  switch i32 %1, label %38 [
    i32 2, label %21
    i32 4, label %25
    i32 3, label %29
  ]

21:                                               ; preds = %20
  %22 = shl nuw nsw i32 %19, 6
  %.idx28 = zext nneg i32 %22 to i64
  %23 = getelementptr inbounds nuw i8, ptr %0, i64 416
  %24 = getelementptr i8, ptr %23, i64 %.idx28
  store float %2, ptr %24, align 16, !tbaa !28
  br label %.sink.split

25:                                               ; preds = %20
  %26 = shl nuw nsw i32 %19, 6
  %.idx27 = zext nneg i32 %26 to i64
  %27 = getelementptr inbounds nuw i8, ptr %0, i64 420
  %28 = getelementptr i8, ptr %27, i64 %.idx27
  store float %2, ptr %28, align 4, !tbaa !29
  br label %.sink.split

29:                                               ; preds = %20
  %30 = shl nuw nsw i32 %19, 6
  %.idx = zext nneg i32 %30 to i64
  %31 = getelementptr inbounds nuw i8, ptr %0, i64 412
  %32 = getelementptr i8, ptr %31, i64 %.idx
  store float %2, ptr %32, align 4, !tbaa !27
  br label %.sink.split

.sink.split:                                      ; preds = %14, %10, %6, %21, %25, %29
  %.sink = phi i32 [ 1, %29 ], [ 2, %25 ], [ 4, %21 ], [ 4, %6 ], [ 2, %10 ], [ 1, %14 ]
  %33 = mul nuw nsw i32 %3, 3
  %34 = shl nuw nsw i32 %.sink, %33
  %35 = getelementptr inbounds nuw i8, ptr %0, i64 820
  %36 = load i32, ptr %35, align 4, !tbaa !45
  %37 = or i32 %36, %34
  store i32 %37, ptr %35, align 4, !tbaa !45
  br label %38

38:                                               ; preds = %.sink.split, %20, %18, %5
  ret void
}